; Function Attrs: mustprogress uwtable
define void @cvRunningAvg(ptr noundef %0, ptr noundef %1, double noundef %2, ptr noundef %3) local_unnamed_addr #0 personality ptr @__gxx_personality_v0 {
  %5 = alloca %"class.cv::Mat", align 8
  %6 = alloca %"class.cv::Mat", align 8
  %7 = alloca %"class.cv::Mat", align 8
  %8 = alloca %"class.cv::Mat", align 8
  %9 = alloca %"class.cv::_InputArray", align 8
  %10 = alloca %"class.cv::_InputOutputArray", align 8
  %11 = alloca %"class.cv::_InputArray", align 8
  call void @_ZN2cv10cvarrToMatEPKvbbiPNS_10AutoBufferIdLm136EEE(ptr dead_on_unwind nonnull writable sret(%"class.cv::Mat") align 8 %5, ptr noundef %0, i1 noundef zeroext false, i1 noundef zeroext true, i32 noundef 0, ptr noundef null)
  invoke void @_ZN2cv10cvarrToMatEPKvbbiPNS_10AutoBufferIdLm136EEE(ptr dead_on_unwind nonnull writable sret(%"class.cv::Mat") align 8 %6, ptr noundef %1, i1 noundef zeroext false, i1 noundef zeroext true, i32 noundef 0, ptr noundef null)
          to label %12 unwind label %17

12:                                               ; preds = %4
  call void @_ZN2cv3MatC1Ev(ptr noundef nonnull align 8 dereferenceable(96) %7) #7
  %.not = icmp eq ptr %3, null
  br i1 %.not, label %23, label %13

13:                                               ; preds = %12
  invoke void @_ZN2cv10cvarrToMatEPKvbbiPNS_10AutoBufferIdLm136EEE(ptr dead_on_unwind nonnull writable sret(%"class.cv::Mat") align 8 %8, ptr noundef nonnull %3, i1 noundef zeroext false, i1 noundef zeroext true, i32 noundef 0, ptr noundef null)
          to label %14 unwind label %19

14:                                               ; preds = %13
  %15 = invoke noundef nonnull align 8 dereferenceable(96) ptr @_ZN2cv3MataSEOS0_(ptr noundef nonnull align 8 dereferenceable(96) %7, ptr noundef nonnull align 8 dereferenceable(96) %8)
          to label %16 unwind label %21

16:                                               ; preds = %14
  call void @_ZN2cv3MatD1Ev(ptr noundef nonnull align 8 dereferenceable(96) %8) #7
  br label %23

17:                                               ; preds = %4
  %18 = landingpad { ptr, i32 }
          cleanup
  br label %36

19:                                               ; preds = %13
  %20 = landingpad { ptr, i32 }
          cleanup
  br label %35

21:                                               ; preds = %14
  %22 = landingpad { ptr, i32 }
          cleanup
  call void @_ZN2cv3MatD1Ev(ptr noundef nonnull align 8 dereferenceable(96) %8) #7
  br label %35

23:                                               ; preds = %12, %16
  %24 = getelementptr inbounds i8, ptr %9, i64 16
  store i32 0, ptr %24, align 8
  %25 = getelementptr inbounds i8, ptr %9, i64 20
  store i32 0, ptr %25, align 4
  store i32 16842752, ptr %9, align 8
  %26 = getelementptr inbounds i8, ptr %9, i64 8
  store ptr %5, ptr %26, align 8
  %27 = getelementptr inbounds i8, ptr %10, i64 8
  %28 = getelementptr inbounds i8, ptr %10, i64 16
  store i64 0, ptr %28, align 8
  store i32 50397184, ptr %10, align 8
  store ptr %6, ptr %27, align 8
  %29 = getelementptr inbounds i8, ptr %11, i64 16
  store i32 0, ptr %29, align 8
  %30 = getelementptr inbounds i8, ptr %11, i64 20
  store i32 0, ptr %30, align 4
  store i32 16842752, ptr %11, align 8
  %31 = getelementptr inbounds i8, ptr %11, i64 8
  store ptr %7, ptr %31, align 8
  invoke void @_ZN2cv18accumulateWeightedERKNS_11_InputArrayERKNS_17_InputOutputArrayEdS2_(ptr noundef nonnull align 8 dereferenceable(24) %9, ptr noundef nonnull align 8 dereferenceable(24) %10, double noundef %2, ptr noundef nonnull align 8 dereferenceable(24) %11)
          to label %32 unwind label %33

32:                                               ; preds = %23
  call void @_ZN2cv3MatD1Ev(ptr noundef nonnull align 8 dereferenceable(96) %7) #7
  call void @_ZN2cv3MatD1Ev(ptr noundef nonnull align 8 dereferenceable(96) %6) #7
  call void @_ZN2cv3MatD1Ev(ptr noundef nonnull align 8 dereferenceable(96) %5) #7
  ret void

33:                                               ; preds = %23
  %34 = landingpad { ptr, i32 }
          cleanup
  br label %35

35:                                               ; preds = %33, %21, %19
  %.pn.pn.pn = phi { ptr, i32 } [ %20, %19 ], [ %22, %21 ], [ %34, %33 ]
  call void @_ZN2cv3MatD1Ev(ptr noundef nonnull align 8 dereferenceable(96) %7) #7
  call void @_ZN2cv3MatD1Ev(ptr noundef nonnull align 8 dereferenceable(96) %6) #7
  br label %36

36:                                               ; preds = %35, %17
  %.pn.pn.pn.pn = phi { ptr, i32 } [ %.pn.pn.pn, %35 ], [ %18, %17 ]
  call void @_ZN2cv3MatD1Ev(ptr noundef nonnull align 8 dereferenceable(96) %5) #7
  resume { ptr, i32 } %.pn.pn.pn.pn
}